; Function Attrs: mustprogress nounwind uwtable
define internal void @_ZNSt23_Sp_counted_ptr_inplaceIN32pxrInternal_v0_24__pxrReserved__12_GLOBAL__N_112_SkelAdapterESaIvELN9__gnu_cxx12_Lock_policyE2EE10_M_disposeEv(ptr noundef nonnull align 8 dereferenceable(416) %0) unnamed_addr #3 align 2 personality ptr @__gxx_personality_v0 {
  %2 = getelementptr inbounds nuw i8, ptr %0, i64 376
  %3 = load ptr, ptr %2, align 8
  %.not.i.i.i.i.i.i = icmp eq ptr %3, null
  br i1 %.not.i.i.i.i.i.i, label %_ZNSt16allocator_traitsISaIvEE7destroyIN32pxrInternal_v0_24__pxrReserved__12_GLOBAL__N_112_SkelAdapterEEEvRS0_PT_.exit, label %4

4:                                                ; preds = %1
  %5 = getelementptr inbounds nuw i8, ptr %0, i64 408
  %6 = load ptr, ptr %5, align 8
  %7 = ptrtoint ptr %6 to i64
  %8 = ptrtoint ptr %3 to i64
  %9 = sub i64 %7, %8
  %10 = ashr exact i64 %9, 3
  %11 = sub nsw i64 0, %10
  %12 = getelementptr inbounds i64, ptr %6, i64 %11
  tail call void @_ZdlPvm(ptr noundef %12, i64 noundef %9) #26
  store ptr null, ptr %2, align 8
  %.sroa.2.0..sroa_idx.i.i.i.i.i.i.i = getelementptr inbounds nuw i8, ptr %0, i64 384
  store i32 0, ptr %.sroa.2.0..sroa_idx.i.i.i.i.i.i.i, align 8
  %.sroa.31.0..sroa_idx.i.i.i.i.i.i.i = getelementptr inbounds nuw i8, ptr %0, i64 392
  store ptr null, ptr %.sroa.31.0..sroa_idx.i.i.i.i.i.i.i, align 8
  %.sroa.4.0..sroa_idx.i.i.i.i.i.i.i = getelementptr inbounds nuw i8, ptr %0, i64 400
  store i32 0, ptr %.sroa.4.0..sroa_idx.i.i.i.i.i.i.i, align 8
  store ptr null, ptr %5, align 8
  br label %_ZNSt16allocator_traitsISaIvEE7destroyIN32pxrInternal_v0_24__pxrReserved__12_GLOBAL__N_112_SkelAdapterEEEvRS0_PT_.exit

_ZNSt16allocator_traitsISaIvEE7destroyIN32pxrInternal_v0_24__pxrReserved__12_GLOBAL__N_112_SkelAdapterEEEvRS0_PT_.exit: ; preds = %1, %4
  %13 = getelementptr inbounds nuw i8, ptr %0, i64 16
  %14 = getelementptr inbounds nuw i8, ptr %0, i64 200
  tail call void @_ZN32pxrInternal_v0_24__pxrReserved__7VtArrayIfED1Ev(ptr noundef nonnull align 8 dereferenceable(40) %14) #24
  %15 = getelementptr inbounds nuw i8, ptr %0, i64 152
  tail call void @_ZN32pxrInternal_v0_24__pxrReserved__7VtArrayINS_10GfMatrix3dEED1Ev(ptr noundef nonnull align 8 dereferenceable(40) %15) #24
  %16 = getelementptr inbounds nuw i8, ptr %0, i64 104
  tail call void @_ZN32pxrInternal_v0_24__pxrReserved__7VtArrayINS_10GfMatrix4dEED1Ev(ptr noundef nonnull align 8 dereferenceable(40) %16) #24
  tail call void @_ZN32pxrInternal_v0_24__pxrReserved__20UsdSkelSkeletonQueryD2Ev(ptr noundef nonnull align 8 dereferenceable(400) %13) #24
  ret void
}